; Function Attrs: nounwind uwtable
define hidden void @zim_ArrayObject_getArrayCopy(ptr nocapture noundef readonly %0, ptr nocapture noundef writeonly %1) #0 {
  %3 = getelementptr inbounds i8, ptr %0, i64 44
  %4 = load i32, ptr %3, align 4
  %.not = icmp eq i32 %4, 0
  br i1 %.not, label %.critedge, label %5

5:                                                ; preds = %2
  tail call void @zend_wrong_parameters_none_error() #11
  %6 = load ptr, ptr getelementptr inbounds (%struct._zend_executor_globals, ptr @executor_globals, i64 0, i32 50), align 8
  %7 = icmp ne ptr %6, null
  tail call void @llvm.assume(i1 %7)
  br label %49

.critedge:                                        ; preds = %2
  %8 = getelementptr inbounds i8, ptr %0, i64 32
  %9 = load ptr, ptr %8, align 8
  %10 = getelementptr inbounds i8, ptr %9, i64 -88
  %11 = getelementptr inbounds i8, ptr %9, i64 -68
  %12 = load i32, ptr %11, align 4
  %13 = and i32 %12, 16777216
  %.not30.i.i = icmp eq i32 %13, 0
  br i1 %.not30.i.i, label %.lr.ph.i.i, label %tailrecurse._crit_edge.i.i

tailrecurse._crit_edge.i.i:                       ; preds = %tailrecurse.i.i, %.critedge
  %.tr.lcssa.i.i = phi ptr [ %10, %.critedge ], [ %21, %tailrecurse.i.i ]
  %14 = getelementptr inbounds i8, ptr %.tr.lcssa.i.i, i64 120
  %15 = load ptr, ptr %14, align 8
  %.not28.i.i = icmp eq ptr %15, null
  br i1 %.not28.i.i, label %16, label %spl_array_get_hash_table.exit

16:                                               ; preds = %tailrecurse._crit_edge.i.i
  %17 = getelementptr inbounds i8, ptr %.tr.lcssa.i.i, i64 88
  tail call void @rebuild_object_properties(ptr noundef nonnull %17) #11
  br label %spl_array_get_hash_table.exit

.lr.ph.i.i:                                       ; preds = %.critedge, %tailrecurse.i.i
  %18 = phi i32 [ %23, %tailrecurse.i.i ], [ %12, %.critedge ]
  %.tr31.i.i = phi ptr [ %21, %tailrecurse.i.i ], [ %10, %.critedge ]
  %19 = and i32 %18, 33554432
  %.not25.i.i = icmp eq i32 %19, 0
  br i1 %.not25.i.i, label %25, label %tailrecurse.i.i

tailrecurse.i.i:                                  ; preds = %.lr.ph.i.i
  %20 = load ptr, ptr %.tr31.i.i, align 8
  %21 = getelementptr inbounds i8, ptr %20, i64 -88
  %22 = getelementptr inbounds i8, ptr %20, i64 -68
  %23 = load i32, ptr %22, align 4
  %24 = and i32 %23, 16777216
  %.not.i.i = icmp eq i32 %24, 0
  br i1 %.not.i.i, label %.lr.ph.i.i, label %tailrecurse._crit_edge.i.i

25:                                               ; preds = %.lr.ph.i.i
  %26 = getelementptr inbounds i8, ptr %.tr31.i.i, i64 8
  %27 = load i8, ptr %26, align 8
  %28 = icmp eq i8 %27, 7
  br i1 %28, label %spl_array_get_hash_table.exit, label %29

29:                                               ; preds = %25
  %30 = load ptr, ptr %.tr31.i.i, align 8
  %31 = getelementptr inbounds i8, ptr %30, i64 32
  %32 = load ptr, ptr %31, align 8
  %.not26.i.i = icmp eq ptr %32, null
  br i1 %.not26.i.i, label %33, label %34

33:                                               ; preds = %29
  tail call void @rebuild_object_properties(ptr noundef nonnull %30) #11
  br label %spl_array_get_hash_table.exit

34:                                               ; preds = %29
  %35 = load i32, ptr %32, align 4
  %36 = icmp ugt i32 %35, 1
  br i1 %36, label %37, label %spl_array_get_hash_table.exit

37:                                               ; preds = %34
  %38 = getelementptr inbounds i8, ptr %32, i64 4
  %39 = load i32, ptr %38, align 4
  %40 = and i32 %39, 64
  %.not27.i.i = icmp eq i32 %40, 0
  br i1 %.not27.i.i, label %41, label %43

41:                                               ; preds = %37
  %42 = add i32 %35, -1
  store i32 %42, ptr %32, align 4
  %.pre.i.i = load ptr, ptr %31, align 8
  br label %43

43:                                               ; preds = %41, %37
  %44 = phi ptr [ %.pre.i.i, %41 ], [ %32, %37 ]
  %45 = tail call ptr @zend_array_dup(ptr noundef %44) #11
  store ptr %45, ptr %31, align 8
  br label %spl_array_get_hash_table.exit

spl_array_get_hash_table.exit:                    ; preds = %tailrecurse._crit_edge.i.i, %16, %25, %33, %34, %43
  %.0.i.i = phi ptr [ %14, %16 ], [ %14, %tailrecurse._crit_edge.i.i ], [ %.tr31.i.i, %25 ], [ %31, %34 ], [ %31, %43 ], [ %31, %33 ]
  %46 = load ptr, ptr %.0.i.i, align 8
  %47 = tail call ptr @zend_array_dup(ptr noundef %46) #11
  store ptr %47, ptr %1, align 8
  %48 = getelementptr inbounds i8, ptr %1, i64 8
  store i32 775, ptr %48, align 8
  br label %49

49:                                               ; preds = %spl_array_get_hash_table.exit, %5
  ret void
}